; Function Attrs: mustprogress nounwind uwtable
define internal void @_ZNSt3setIN12_GLOBAL__N_116ActionDescriptorESt8functionIFbN6cmList15TransformActionES4_EESaIS1_EED2Ev(ptr noundef nonnull align 8 dereferenceable(72) %0) unnamed_addr #6 align 2 personality ptr @__gxx_personality_v0 {
  %2 = getelementptr inbounds i8, ptr %0, i64 40
  %.val.i = load ptr, ptr %2, align 8
  invoke fastcc void @_ZNSt8_Rb_treeIN12_GLOBAL__N_116ActionDescriptorES1_St9_IdentityIS1_ESt8functionIFbN6cmList15TransformActionES6_EESaIS1_EE8_M_eraseEPSt13_Rb_tree_nodeIS1_E(ptr noundef %.val.i)
          to label %3 unwind label %11

3:                                                ; preds = %1
  %4 = getelementptr inbounds i8, ptr %0, i64 16
  %5 = load ptr, ptr %4, align 8
  %.not.i.i.i.i.i = icmp eq ptr %5, null
  br i1 %.not.i.i.i.i.i, label %_ZNSt8_Rb_treeIN12_GLOBAL__N_116ActionDescriptorES1_St9_IdentityIS1_ESt8functionIFbN6cmList15TransformActionES6_EESaIS1_EED2Ev.exit, label %6

6:                                                ; preds = %3
  %7 = invoke noundef zeroext i1 %5(ptr noundef nonnull align 8 dereferenceable(16) %0, ptr noundef nonnull align 8 dereferenceable(16) %0, i32 noundef 3)
          to label %_ZNSt8_Rb_treeIN12_GLOBAL__N_116ActionDescriptorES1_St9_IdentityIS1_ESt8functionIFbN6cmList15TransformActionES6_EESaIS1_EED2Ev.exit unwind label %8

8:                                                ; preds = %6
  %9 = landingpad { ptr, i32 }
          catch ptr null
  %10 = extractvalue { ptr, i32 } %9, 0
  tail call void @__clang_call_terminate(ptr %10) #30
  unreachable

11:                                               ; preds = %1
  %12 = landingpad { ptr, i32 }
          catch ptr null
  %13 = extractvalue { ptr, i32 } %12, 0
  tail call void @__clang_call_terminate(ptr %13) #30
  unreachable

_ZNSt8_Rb_treeIN12_GLOBAL__N_116ActionDescriptorES1_St9_IdentityIS1_ESt8functionIFbN6cmList15TransformActionES6_EESaIS1_EED2Ev.exit: ; preds = %3, %6
  ret void
}